ccopy_reg
_reconstructor
p0
(cassets.characters.basecharacter
Character
p1
c__builtin__
object
p2
Ntp3
Rp4
(dp5
S'life'
p6
I01
sS'loc_id'
p7
(lp8
I0
aI0
asS'name'
p9
S'george'
p10
sS'descr'
p11
NsS'hp'
p12
I5
sS'health'
p13
I100
sS'invobj'
p14
(lp15
S'sword'
p16
asS'enemies'
p17
(lp18
sb.